target datalayout = "e-m:e-p270:32:32-p271:32:32-p272:64:64-i64:64-i128:128-f80:128-n8:16:32:64-S128"
target triple = "x86_64-pc-linux-gnu"

%struct.tvb_ops = type { i64, ptr, ptr, ptr, ptr, ptr, ptr, ptr }
%struct.tvb_composite = type { %struct.tvbuff, %struct.tvb_comp_t }
%struct.tvbuff = type { ptr, ptr, i8, i32, ptr, ptr, i32, i32, i32, i32 }
%struct.tvb_comp_t = type { ptr, ptr, ptr, i32 }
%struct._GQueue = type { ptr, ptr, i32 }
%struct._GList = type { ptr, ptr, ptr }

@tvb_composite_ops = internal constant %struct.tvb_ops { i64 88, ptr @composite_free, ptr @composite_offset, ptr @composite_get_ptr, ptr @composite_memcpy, ptr null, ptr null, ptr null }, align 8
@.str = private unnamed_addr constant [29 x i8] c"%s:%u: failed assertion \22%s\22\00", align 1
@.str.1 = private unnamed_addr constant [24 x i8] c"epan/tvbuff_composite.c\00", align 1
@.str.2 = private unnamed_addr constant [25 x i8] c"tvb && !tvb->initialized\00", align 1
@.str.3 = private unnamed_addr constant [31 x i8] c"tvb->ops == &tvb_composite_ops\00", align 1
@.str.4 = private unnamed_addr constant [17 x i8] c"tvb->length == 0\00", align 1
@.str.5 = private unnamed_addr constant [26 x i8] c"tvb->reported_length == 0\00", align 1
@.str.6 = private unnamed_addr constant [27 x i8] c"tvb->contained_length == 0\00", align 1
@.str.7 = private unnamed_addr constant [12 x i8] c"num_members\00", align 1

; Function Attrs: null_pointer_is_valid sspstrong uwtable
define void @tvb_composite_finalize(ptr noundef %0) #0 {
  %2 = alloca ptr, align 8
  %3 = alloca ptr, align 8
  %4 = alloca i32, align 4
  %5 = alloca ptr, align 8
  %6 = alloca ptr, align 8
  %7 = alloca i32, align 4
  %8 = alloca i64, align 8
  %9 = alloca i64, align 8
  %10 = alloca ptr, align 8
  %11 = alloca ptr, align 8
  %12 = alloca i64, align 8
  %13 = alloca i64, align 8
  %14 = alloca ptr, align 8
  %15 = alloca ptr, align 8
  %16 = alloca ptr, align 8
  store ptr %0, ptr %2, align 8
  call void @llvm.lifetime.start.p0(i64 8, ptr %3) #8
  %17 = load ptr, ptr %2, align 8
  store ptr %17, ptr %3, align 8
  call void @llvm.lifetime.start.p0(i64 4, ptr %4) #8
  call void @llvm.lifetime.start.p0(i64 8, ptr %5) #8
  call void @llvm.lifetime.start.p0(i64 8, ptr %6) #8
  call void @llvm.lifetime.start.p0(i64 4, ptr %7) #8
  %18 = load ptr, ptr %2, align 8
  %19 = icmp ne ptr %18, null
  br i1 %19, label %20, label %26

20:                                               ; preds = %1
  %21 = load ptr, ptr %2, align 8
  %22 = getelementptr inbounds nuw %struct.tvbuff, ptr %21, i32 0, i32 2
  %23 = load i8, ptr %22, align 8, !range !6, !noundef !7
  %24 = trunc i8 %23 to i1
  br i1 %24, label %26, label %25

25:                                               ; preds = %20
  br label %28

26:                                               ; preds = %20, %1
  call void (ptr, ...) @proto_report_dissector_bug(ptr noundef @.str, ptr noundef @.str.1, i32 noundef 271, ptr noundef @.str.2) #9
  unreachable

27:                                               ; No predecessors!
  br label %28

28:                                               ; preds = %27, %25
  %29 = load ptr, ptr %2, align 8
  %30 = getelementptr inbounds nuw %struct.tvbuff, ptr %29, i32 0, i32 1
  %31 = load ptr, ptr %30, align 8
  %32 = icmp eq ptr %31, @tvb_composite_ops
  br i1 %32, label %33, label %34

33:                                               ; preds = %28
  br label %36

34:                                               ; preds = %28
  call void (ptr, ...) @proto_report_dissector_bug(ptr noundef @.str, ptr noundef @.str.1, i32 noundef 272, ptr noundef @.str.3) #9
  unreachable

35:                                               ; No predecessors!
  br label %36

36:                                               ; preds = %35, %33
  %37 = load ptr, ptr %2, align 8
  %38 = getelementptr inbounds nuw %struct.tvbuff, ptr %37, i32 0, i32 6
  %39 = load i32, ptr %38, align 8
  %40 = icmp eq i32 %39, 0
  br i1 %40, label %41, label %42

41:                                               ; preds = %36
  br label %44

42:                                               ; preds = %36
  call void (ptr, ...) @proto_report_dissector_bug(ptr noundef @.str, ptr noundef @.str.1, i32 noundef 273, ptr noundef @.str.4) #9
  unreachable

43:                                               ; No predecessors!
  br label %44

44:                                               ; preds = %43, %41
  %45 = load ptr, ptr %2, align 8
  %46 = getelementptr inbounds nuw %struct.tvbuff, ptr %45, i32 0, i32 7
  %47 = load i32, ptr %46, align 4
  %48 = icmp eq i32 %47, 0
  br i1 %48, label %49, label %50

49:                                               ; preds = %44
  br label %52

50:                                               ; preds = %44
  call void (ptr, ...) @proto_report_dissector_bug(ptr noundef @.str, ptr noundef @.str.1, i32 noundef 274, ptr noundef @.str.5) #9
  unreachable

51:                                               ; No predecessors!
  br label %52

52:                                               ; preds = %51, %49
  %53 = load ptr, ptr %2, align 8
  %54 = getelementptr inbounds nuw %struct.tvbuff, ptr %53, i32 0, i32 8
  %55 = load i32, ptr %54, align 8
  %56 = icmp eq i32 %55, 0
  br i1 %56, label %57, label %58

57:                                               ; preds = %52
  br label %60

58:                                               ; preds = %52
  call void (ptr, ...) @proto_report_dissector_bug(ptr noundef @.str, ptr noundef @.str.1, i32 noundef 275, ptr noundef @.str.6) #9
  unreachable

59:                                               ; No predecessors!
  br label %60

60:                                               ; preds = %59, %57
  %61 = load ptr, ptr %3, align 8
  %62 = getelementptr inbounds nuw %struct.tvb_composite, ptr %61, i32 0, i32 1
  store ptr %62, ptr %6, align 8
  %63 = load ptr, ptr %6, align 8
  %64 = getelementptr inbounds nuw %struct.tvb_comp_t, ptr %63, i32 0, i32 0
  %65 = load ptr, ptr %64, align 8
  %66 = call i32 @g_queue_get_length(ptr noundef %65)
  store i32 %66, ptr %4, align 4
  %67 = load i32, ptr %4, align 4
  %68 = icmp ne i32 %67, 0
  br i1 %68, label %69, label %70

69:                                               ; preds = %60
  br label %72

70:                                               ; preds = %60
  call void (ptr, ...) @proto_report_dissector_bug(ptr noundef @.str, ptr noundef @.str.1, i32 noundef 285, ptr noundef @.str.7) #9
  unreachable

71:                                               ; No predecessors!
  br label %72

72:                                               ; preds = %71, %69
  call void @llvm.lifetime.start.p0(i64 8, ptr %8) #8
  %73 = load i32, ptr %4, align 4
  %74 = zext i32 %73 to i64
  store i64 %74, ptr %8, align 8
  call void @llvm.lifetime.start.p0(i64 8, ptr %9) #8
  store i64 4, ptr %9, align 8
  call void @llvm.lifetime.start.p0(i64 8, ptr %10) #8
  %75 = load i64, ptr %9, align 8
  %76 = icmp eq i64 %75, 1
  br i1 %76, label %77, label %80

77:                                               ; preds = %72
  %78 = load i64, ptr %8, align 8
  %79 = call noalias ptr @g_malloc(i64 noundef %78) #10
  store ptr %79, ptr %10, align 8
  br label %101

80:                                               ; preds = %72
  %81 = load i64, ptr %8, align 8
  %82 = call i1 @llvm.is.constant.i64(i64 %81)
  br i1 %82, label %83, label %96

83:                                               ; preds = %80
  %84 = load i64, ptr %9, align 8
  %85 = icmp eq i64 %84, 0
  br i1 %85, label %91, label %86

86:                                               ; preds = %83
  %87 = load i64, ptr %8, align 8
  %88 = load i64, ptr %9, align 8
  %89 = udiv i64 -1, %88
  %90 = icmp ule i64 %87, %89
  br i1 %90, label %91, label %96

91:                                               ; preds = %86, %83
  %92 = load i64, ptr %8, align 8
  %93 = load i64, ptr %9, align 8
  %94 = mul i64 %92, %93
  %95 = call noalias ptr @g_malloc(i64 noundef %94) #10
  store ptr %95, ptr %10, align 8
  br label %100

96:                                               ; preds = %86, %80
  %97 = load i64, ptr %8, align 8
  %98 = load i64, ptr %9, align 8
  %99 = call noalias ptr @g_malloc_n(i64 noundef %97, i64 noundef %98) #11
  store ptr %99, ptr %10, align 8
  br label %100

100:                                              ; preds = %96, %91
  br label %101

101:                                              ; preds = %100, %77
  %102 = load ptr, ptr %10, align 8
  store ptr %102, ptr %11, align 8
  call void @llvm.lifetime.end.p0(i64 8, ptr %10) #8
  call void @llvm.lifetime.end.p0(i64 8, ptr %9) #8
  call void @llvm.lifetime.end.p0(i64 8, ptr %8) #8
  %103 = load ptr, ptr %11, align 8
  %104 = load ptr, ptr %6, align 8
  %105 = getelementptr inbounds nuw %struct.tvb_comp_t, ptr %104, i32 0, i32 1
  store ptr %103, ptr %105, align 8
  call void @llvm.lifetime.start.p0(i64 8, ptr %12) #8
  %106 = load i32, ptr %4, align 4
  %107 = zext i32 %106 to i64
  store i64 %107, ptr %12, align 8
  call void @llvm.lifetime.start.p0(i64 8, ptr %13) #8
  store i64 4, ptr %13, align 8
  call void @llvm.lifetime.start.p0(i64 8, ptr %14) #8
  %108 = load i64, ptr %13, align 8
  %109 = icmp eq i64 %108, 1
  br i1 %109, label %110, label %113

110:                                              ; preds = %101
  %111 = load i64, ptr %12, align 8
  %112 = call noalias ptr @g_malloc(i64 noundef %111) #10
  store ptr %112, ptr %14, align 8
  br label %134

113:                                              ; preds = %101
  %114 = load i64, ptr %12, align 8
  %115 = call i1 @llvm.is.constant.i64(i64 %114)
  br i1 %115, label %116, label %129

116:                                              ; preds = %113
  %117 = load i64, ptr %13, align 8
  %118 = icmp eq i64 %117, 0
  br i1 %118, label %124, label %119

119:                                              ; preds = %116
  %120 = load i64, ptr %12, align 8
  %121 = load i64, ptr %13, align 8
  %122 = udiv i64 -1, %121
  %123 = icmp ule i64 %120, %122
  br i1 %123, label %124, label %129

124:                                              ; preds = %119, %116
  %125 = load i64, ptr %12, align 8
  %126 = load i64, ptr %13, align 8
  %127 = mul i64 %125, %126
  %128 = call noalias ptr @g_malloc(i64 noundef %127) #10
  store ptr %128, ptr %14, align 8
  br label %133

129:                                              ; preds = %119, %113
  %130 = load i64, ptr %12, align 8
  %131 = load i64, ptr %13, align 8
  %132 = call noalias ptr @g_malloc_n(i64 noundef %130, i64 noundef %131) #11
  store ptr %132, ptr %14, align 8
  br label %133

133:                                              ; preds = %129, %124
  br label %134

134:                                              ; preds = %133, %110
  %135 = load ptr, ptr %14, align 8
  store ptr %135, ptr %15, align 8
  call void @llvm.lifetime.end.p0(i64 8, ptr %14) #8
  call void @llvm.lifetime.end.p0(i64 8, ptr %13) #8
  call void @llvm.lifetime.end.p0(i64 8, ptr %12) #8
  %136 = load ptr, ptr %15, align 8
  %137 = load ptr, ptr %6, align 8
  %138 = getelementptr inbounds nuw %struct.tvb_comp_t, ptr %137, i32 0, i32 2
  store ptr %136, ptr %138, align 8
  call void @llvm.lifetime.start.p0(i64 8, ptr %16) #8
  %139 = load ptr, ptr %6, align 8
  %140 = getelementptr inbounds nuw %struct.tvb_comp_t, ptr %139, i32 0, i32 0
  %141 = load ptr, ptr %140, align 8
  %142 = getelementptr inbounds nuw %struct._GQueue, ptr %141, i32 0, i32 0
  %143 = load ptr, ptr %142, align 8
  store ptr %143, ptr %16, align 8
  store i32 0, ptr %7, align 4
  br label %144

144:                                              ; preds = %192, %134
  %145 = load i32, ptr %7, align 4
  %146 = load i32, ptr %4, align 4
  %147 = icmp ult i32 %145, %146
  br i1 %147, label %148, label %198

148:                                              ; preds = %144
  %149 = load ptr, ptr %16, align 8
  %150 = getelementptr inbounds nuw %struct._GList, ptr %149, i32 0, i32 0
  %151 = load ptr, ptr %150, align 8
  store ptr %151, ptr %5, align 8
  %152 = load ptr, ptr %2, align 8
  %153 = getelementptr inbounds nuw %struct.tvbuff, ptr %152, i32 0, i32 6
  %154 = load i32, ptr %153, align 8
  %155 = load ptr, ptr %6, align 8
  %156 = getelementptr inbounds nuw %struct.tvb_comp_t, ptr %155, i32 0, i32 1
  %157 = load ptr, ptr %156, align 8
  %158 = load i32, ptr %7, align 4
  %159 = zext i32 %158 to i64
  %160 = getelementptr i32, ptr %157, i64 %159
  store i32 %154, ptr %160, align 4
  %161 = load ptr, ptr %5, align 8
  %162 = getelementptr inbounds nuw %struct.tvbuff, ptr %161, i32 0, i32 6
  %163 = load i32, ptr %162, align 8
  %164 = load ptr, ptr %2, align 8
  %165 = getelementptr inbounds nuw %struct.tvbuff, ptr %164, i32 0, i32 6
  %166 = load i32, ptr %165, align 8
  %167 = add i32 %166, %163
  store i32 %167, ptr %165, align 8
  %168 = load ptr, ptr %5, align 8
  %169 = getelementptr inbounds nuw %struct.tvbuff, ptr %168, i32 0, i32 7
  %170 = load i32, ptr %169, align 4
  %171 = load ptr, ptr %2, align 8
  %172 = getelementptr inbounds nuw %struct.tvbuff, ptr %171, i32 0, i32 7
  %173 = load i32, ptr %172, align 4
  %174 = add i32 %173, %170
  store i32 %174, ptr %172, align 4
  %175 = load ptr, ptr %5, align 8
  %176 = getelementptr inbounds nuw %struct.tvbuff, ptr %175, i32 0, i32 8
  %177 = load i32, ptr %176, align 8
  %178 = load ptr, ptr %2, align 8
  %179 = getelementptr inbounds nuw %struct.tvbuff, ptr %178, i32 0, i32 8
  %180 = load i32, ptr %179, align 8
  %181 = add i32 %180, %177
  store i32 %181, ptr %179, align 8
  %182 = load ptr, ptr %2, align 8
  %183 = getelementptr inbounds nuw %struct.tvbuff, ptr %182, i32 0, i32 6
  %184 = load i32, ptr %183, align 8
  %185 = sub i32 %184, 1
  %186 = load ptr, ptr %6, align 8
  %187 = getelementptr inbounds nuw %struct.tvb_comp_t, ptr %186, i32 0, i32 2
  %188 = load ptr, ptr %187, align 8
  %189 = load i32, ptr %7, align 4
  %190 = zext i32 %189 to i64
  %191 = getelementptr i32, ptr %188, i64 %190
  store i32 %185, ptr %191, align 4
  br label %192

192:                                              ; preds = %148
  %193 = load i32, ptr %7, align 4
  %194 = add i32 %193, 1
  store i32 %194, ptr %7, align 4
  %195 = load ptr, ptr %16, align 8
  %196 = getelementptr inbounds nuw %struct._GList, ptr %195, i32 0, i32 1
  %197 = load ptr, ptr %196, align 8
  store ptr %197, ptr %16, align 8
  br label %144, !llvm.loop !8

198:                                              ; preds = %144
  %199 = load ptr, ptr %2, align 8
  %200 = getelementptr inbounds nuw %struct.tvbuff, ptr %199, i32 0, i32 2
  store i8 1, ptr %200, align 8
  %201 = load ptr, ptr %2, align 8
  %202 = load ptr, ptr %2, align 8
  %203 = getelementptr inbounds nuw %struct.tvbuff, ptr %202, i32 0, i32 4
  store ptr %201, ptr %203, align 8
  call void @llvm.lifetime.end.p0(i64 8, ptr %16) #8
  call void @llvm.lifetime.end.p0(i64 4, ptr %7) #8
  call void @llvm.lifetime.end.p0(i64 8, ptr %6) #8
  call void @llvm.lifetime.end.p0(i64 8, ptr %5) #8
  call void @llvm.lifetime.end.p0(i64 4, ptr %4) #8
  call void @llvm.lifetime.end.p0(i64 8, ptr %3) #8
  ret void
}