; Function Attrs: null_pointer_is_valid sspstrong uwtable
define void @tvb_composite_finalize(ptr noundef %0) local_unnamed_addr #0 {
  %.not = icmp eq ptr %0, null
  br i1 %.not, label %6, label %2

2:                                                ; preds = %1
  %3 = getelementptr inbounds nuw i8, ptr %0, i64 16
  %4 = load i8, ptr %3, align 8, !range !6, !noundef !7
  %5 = trunc nuw i8 %4 to i1
  br i1 %5, label %6, label %7

6:                                                ; preds = %2, %1
  tail call void (ptr, ...) @proto_report_dissector_bug(ptr noundef nonnull @.str, ptr noundef nonnull @.str.1, i32 noundef 271, ptr noundef nonnull @.str.2) #7
  unreachable

7:                                                ; preds = %2
  %8 = getelementptr inbounds nuw i8, ptr %0, i64 8
  %9 = load ptr, ptr %8, align 8
  %10 = icmp eq ptr %9, @tvb_composite_ops
  br i1 %10, label %12, label %11

11:                                               ; preds = %7
  tail call void (ptr, ...) @proto_report_dissector_bug(ptr noundef nonnull @.str, ptr noundef nonnull @.str.1, i32 noundef 272, ptr noundef nonnull @.str.3) #7
  unreachable

12:                                               ; preds = %7
  %13 = getelementptr inbounds nuw i8, ptr %0, i64 40
  %14 = load i32, ptr %13, align 8
  %15 = icmp eq i32 %14, 0
  br i1 %15, label %17, label %16

16:                                               ; preds = %12
  tail call void (ptr, ...) @proto_report_dissector_bug(ptr noundef nonnull @.str, ptr noundef nonnull @.str.1, i32 noundef 273, ptr noundef nonnull @.str.4) #7
  unreachable

17:                                               ; preds = %12
  %18 = getelementptr inbounds nuw i8, ptr %0, i64 44
  %19 = load i32, ptr %18, align 4
  %20 = icmp eq i32 %19, 0
  br i1 %20, label %22, label %21

21:                                               ; preds = %17
  tail call void (ptr, ...) @proto_report_dissector_bug(ptr noundef nonnull @.str, ptr noundef nonnull @.str.1, i32 noundef 274, ptr noundef nonnull @.str.5) #7
  unreachable

22:                                               ; preds = %17
  %23 = getelementptr inbounds nuw i8, ptr %0, i64 48
  %24 = load i32, ptr %23, align 8
  %25 = icmp eq i32 %24, 0
  br i1 %25, label %27, label %26

26:                                               ; preds = %22
  tail call void (ptr, ...) @proto_report_dissector_bug(ptr noundef nonnull @.str, ptr noundef nonnull @.str.1, i32 noundef 275, ptr noundef nonnull @.str.6) #7
  unreachable

27:                                               ; preds = %22
  %28 = getelementptr inbounds nuw i8, ptr %0, i64 56
  %29 = load ptr, ptr %28, align 8
  %30 = tail call i32 @g_queue_get_length(ptr noundef %29)
  %.not63 = icmp eq i32 %30, 0
  br i1 %.not63, label %31, label %32

31:                                               ; preds = %27
  tail call void (ptr, ...) @proto_report_dissector_bug(ptr noundef nonnull @.str, ptr noundef nonnull @.str.1, i32 noundef 285, ptr noundef nonnull @.str.7) #7
  unreachable

32:                                               ; preds = %27
  %33 = zext i32 %30 to i64
  %34 = tail call noalias ptr @g_malloc_n(i64 noundef %33, i64 noundef 4) #8
  %35 = getelementptr inbounds nuw i8, ptr %0, i64 64
  store ptr %34, ptr %35, align 8
  %36 = tail call noalias ptr @g_malloc_n(i64 noundef %33, i64 noundef 4) #8
  %37 = getelementptr inbounds nuw i8, ptr %0, i64 72
  store ptr %36, ptr %37, align 8
  %38 = load ptr, ptr %28, align 8
  %wide.trip.count = zext i32 %30 to i64
  br label %39

39:                                               ; preds = %32, %39
  %indvars.iv = phi i64 [ 0, %32 ], [ %indvars.iv.next, %39 ]
  %.0.in65 = phi ptr [ %38, %32 ], [ %58, %39 ]
  %.0 = load ptr, ptr %.0.in65, align 8
  %40 = load ptr, ptr %.0, align 8
  %41 = load i32, ptr %13, align 8
  %42 = load ptr, ptr %35, align 8
  %43 = getelementptr i32, ptr %42, i64 %indvars.iv
  store i32 %41, ptr %43, align 4
  %44 = getelementptr inbounds nuw i8, ptr %40, i64 40
  %45 = load i32, ptr %44, align 8
  %46 = add i32 %41, %45
  store i32 %46, ptr %13, align 8
  %47 = getelementptr inbounds nuw i8, ptr %40, i64 44
  %48 = load i32, ptr %47, align 4
  %49 = load i32, ptr %18, align 4
  %50 = add i32 %49, %48
  store i32 %50, ptr %18, align 4
  %51 = getelementptr inbounds nuw i8, ptr %40, i64 48
  %52 = load i32, ptr %51, align 8
  %53 = load i32, ptr %23, align 8
  %54 = add i32 %53, %52
  store i32 %54, ptr %23, align 8
  %55 = add i32 %46, -1
  %56 = load ptr, ptr %37, align 8
  %57 = getelementptr i32, ptr %56, i64 %indvars.iv
  store i32 %55, ptr %57, align 4
  %indvars.iv.next = add nuw nsw i64 %indvars.iv, 1
  %58 = getelementptr inbounds nuw i8, ptr %.0, i64 8
  %exitcond.not = icmp eq i64 %indvars.iv.next, %wide.trip.count
  br i1 %exitcond.not, label %59, label %39, !llvm.loop !8

59:                                               ; preds = %39
  store i8 1, ptr %3, align 8
  %60 = getelementptr inbounds nuw i8, ptr %0, i64 24
  store ptr %0, ptr %60, align 8
  ret void
}